; Function Attrs: mustprogress nounwind uwtable
define internal fastcc void @_ZNSt8_Rb_treeINSt7__cxx1112basic_stringIcSt11char_traitsIcESaIcEEESt4pairIKS5_N7rocksdb12_GLOBAL__N_115LockHoldingInfoEESt10_Select1stISB_ESt4lessIS5_ESaISB_EE8_M_eraseEPSt13_Rb_tree_nodeISB_E(ptr noundef %__x) unnamed_addr #3 align 2 personality ptr @__gxx_personality_v0 {
entry:
  %cmp.not5 = icmp eq ptr %__x, null
  br i1 %cmp.not5, label %while.end, label %while.body

while.body:                                       ; preds = %entry, %while.body
  %__x.addr.06 = phi ptr [ %__x.addr.0.val4, %while.body ], [ %__x, %entry ]
  %0 = getelementptr i8, ptr %__x.addr.06, i64 24
  %__x.addr.0.val = load ptr, ptr %0, align 8
  tail call fastcc void @_ZNSt8_Rb_treeINSt7__cxx1112basic_stringIcSt11char_traitsIcESaIcEEESt4pairIKS5_N7rocksdb12_GLOBAL__N_115LockHoldingInfoEESt10_Select1stISB_ESt4lessIS5_ESaISB_EE8_M_eraseEPSt13_Rb_tree_nodeISB_E(ptr noundef %__x.addr.0.val)
  %1 = getelementptr i8, ptr %__x.addr.06, i64 16
  %__x.addr.0.val4 = load ptr, ptr %1, align 8
  %_M_storage.i.i.i = getelementptr inbounds i8, ptr %__x.addr.06, i64 32
  tail call void @_ZNSt7__cxx1112basic_stringIcSt11char_traitsIcESaIcEED1Ev(ptr noundef nonnull align 8 dereferenceable(32) %_M_storage.i.i.i) #29
  tail call void @_ZdlPv(ptr noundef nonnull %__x.addr.06) #32
  %cmp.not = icmp eq ptr %__x.addr.0.val4, null
  br i1 %cmp.not, label %while.end, label %while.body, !llvm.loop !8

while.end:                                        ; preds = %while.body, %entry
  ret void
}